target datalayout = "e-m:e-p270:32:32-p271:32:32-p272:64:64-i64:64-i128:128-f80:128-n8:16:32:64-S128"
target triple = "x86_64-pc-linux-gnu"

%struct.archive_write = type { %struct.archive, i32, i64, i64, ptr, i64, ptr, ptr, ptr, ptr, ptr, i32, i32, ptr, ptr, ptr, ptr, ptr, ptr, ptr, ptr, ptr, ptr, ptr, ptr, ptr, ptr }
%struct.archive = type { i32, i32, ptr, i32, ptr, i32, i32, ptr, %struct.archive_string, ptr, i32, i32, ptr, ptr, i64, i64, i64, i8, i64 }
%struct.archive_string = type { ptr, i64, i64 }
%struct.pax = type { i64, i64, %struct.archive_string, %struct.archive_string, %struct.archive_string, i64, ptr, ptr, ptr, i32, i32 }

@.str = private unnamed_addr constant [40 x i8] c"archive_write_set_format_pax_restricted\00", align 1
@.str.1 = private unnamed_addr constant [33 x i8] c"restricted POSIX pax interchange\00", align 1
@.str.2 = private unnamed_addr constant [29 x i8] c"archive_write_set_format_pax\00", align 1
@.str.3 = private unnamed_addr constant [24 x i8] c"Can't allocate pax data\00", align 1
@.str.4 = private unnamed_addr constant [4 x i8] c"pax\00", align 1
@.str.5 = private unnamed_addr constant [22 x i8] c"POSIX pax interchange\00", align 1

; Function Attrs: nounwind uwtable
define dso_local i32 @archive_write_set_format_pax(ptr noundef %0) #0 {
  %2 = alloca i32, align 4
  %3 = alloca ptr, align 8
  %4 = alloca ptr, align 8
  %5 = alloca ptr, align 8
  %6 = alloca i32, align 4
  store ptr %0, ptr %3, align 8
  %7 = load ptr, ptr %3, align 8
  store ptr %7, ptr %4, align 8
  br label %8

8:                                                ; preds = %1
  %9 = load ptr, ptr %3, align 8
  %10 = call i32 @__archive_check_magic(ptr noundef %9, i32 noundef -1329217314, i32 noundef 1, ptr noundef @.str.2)
  store i32 %10, ptr %6, align 4
  %11 = load i32, ptr %6, align 4
  %12 = icmp eq i32 %11, -30
  br i1 %12, label %13, label %14

13:                                               ; preds = %8
  store i32 -30, ptr %2, align 4
  br label %59

14:                                               ; preds = %8
  br label %15

15:                                               ; preds = %14
  %16 = load ptr, ptr %4, align 8
  %17 = getelementptr inbounds %struct.archive_write, ptr %16, i32 0, i32 23
  %18 = load ptr, ptr %17, align 8
  %19 = icmp ne ptr %18, null
  br i1 %19, label %20, label %26

20:                                               ; preds = %15
  %21 = load ptr, ptr %4, align 8
  %22 = getelementptr inbounds %struct.archive_write, ptr %21, i32 0, i32 23
  %23 = load ptr, ptr %22, align 8
  %24 = load ptr, ptr %4, align 8
  %25 = call i32 %23(ptr noundef %24)
  br label %26

26:                                               ; preds = %20, %15
  %27 = call noalias ptr @calloc(i64 noundef 1, i64 noundef 128) #8
  store ptr %27, ptr %5, align 8
  %28 = load ptr, ptr %5, align 8
  %29 = icmp eq ptr %28, null
  br i1 %29, label %30, label %33

30:                                               ; preds = %26
  %31 = load ptr, ptr %4, align 8
  %32 = getelementptr inbounds %struct.archive_write, ptr %31, i32 0, i32 0
  call void (ptr, i32, ptr, ...) @archive_set_error(ptr noundef %32, i32 noundef 12, ptr noundef @.str.3)
  store i32 -30, ptr %2, align 4
  br label %59

33:                                               ; preds = %26
  %34 = load ptr, ptr %5, align 8
  %35 = getelementptr inbounds %struct.pax, ptr %34, i32 0, i32 10
  store i32 3, ptr %35, align 4
  %36 = load ptr, ptr %5, align 8
  %37 = load ptr, ptr %4, align 8
  %38 = getelementptr inbounds %struct.archive_write, ptr %37, i32 0, i32 15
  store ptr %36, ptr %38, align 8
  %39 = load ptr, ptr %4, align 8
  %40 = getelementptr inbounds %struct.archive_write, ptr %39, i32 0, i32 16
  store ptr @.str.4, ptr %40, align 8
  %41 = load ptr, ptr %4, align 8
  %42 = getelementptr inbounds %struct.archive_write, ptr %41, i32 0, i32 18
  store ptr @archive_write_pax_options, ptr %42, align 8
  %43 = load ptr, ptr %4, align 8
  %44 = getelementptr inbounds %struct.archive_write, ptr %43, i32 0, i32 20
  store ptr @archive_write_pax_header, ptr %44, align 8
  %45 = load ptr, ptr %4, align 8
  %46 = getelementptr inbounds %struct.archive_write, ptr %45, i32 0, i32 21
  store ptr @archive_write_pax_data, ptr %46, align 8
  %47 = load ptr, ptr %4, align 8
  %48 = getelementptr inbounds %struct.archive_write, ptr %47, i32 0, i32 22
  store ptr @archive_write_pax_close, ptr %48, align 8
  %49 = load ptr, ptr %4, align 8
  %50 = getelementptr inbounds %struct.archive_write, ptr %49, i32 0, i32 23
  store ptr @archive_write_pax_free, ptr %50, align 8
  %51 = load ptr, ptr %4, align 8
  %52 = getelementptr inbounds %struct.archive_write, ptr %51, i32 0, i32 19
  store ptr @archive_write_pax_finish_entry, ptr %52, align 8
  %53 = load ptr, ptr %4, align 8
  %54 = getelementptr inbounds %struct.archive_write, ptr %53, i32 0, i32 0
  %55 = getelementptr inbounds %struct.archive, ptr %54, i32 0, i32 3
  store i32 196610, ptr %55, align 8
  %56 = load ptr, ptr %4, align 8
  %57 = getelementptr inbounds %struct.archive_write, ptr %56, i32 0, i32 0
  %58 = getelementptr inbounds %struct.archive, ptr %57, i32 0, i32 4
  store ptr @.str.5, ptr %58, align 8
  store i32 0, ptr %2, align 4
  br label %59

59:                                               ; preds = %33, %30, %13
  %60 = load i32, ptr %2, align 4
  ret i32 %60
}

; Function Attrs: nounwind uwtable
define dso_local i32 @archive_write_set_format_pax_restricted(ptr noundef %0) #0 {
  %2 = alloca i32, align 4
  %3 = alloca ptr, align 8
  %4 = alloca ptr, align 8
  %5 = alloca i32, align 4
  %6 = alloca i32, align 4
  store ptr %0, ptr %3, align 8
  %7 = load ptr, ptr %3, align 8
  store ptr %7, ptr %4, align 8
  br label %8

8:                                                ; preds = %1
  %9 = load ptr, ptr %3, align 8
  %10 = call i32 @__archive_check_magic(ptr noundef %9, i32 noundef -1329217314, i32 noundef 1, ptr noundef @.str)
  store i32 %10, ptr %6, align 4
  %11 = load i32, ptr %6, align 4
  %12 = icmp eq i32 %11, -30
  br i1 %12, label %13, label %14

13:                                               ; preds = %8
  store i32 -30, ptr %2, align 4
  br label %26

14:                                               ; preds = %8
  br label %15

15:                                               ; preds = %14
  %16 = load ptr, ptr %4, align 8
  %17 = getelementptr inbounds %struct.archive_write, ptr %16, i32 0, i32 0
  %18 = call i32 @archive_write_set_format_pax(ptr noundef %17)
  store i32 %18, ptr %5, align 4
  %19 = load ptr, ptr %4, align 8
  %20 = getelementptr inbounds %struct.archive_write, ptr %19, i32 0, i32 0
  %21 = getelementptr inbounds %struct.archive, ptr %20, i32 0, i32 3
  store i32 196611, ptr %21, align 8
  %22 = load ptr, ptr %4, align 8
  %23 = getelementptr inbounds %struct.archive_write, ptr %22, i32 0, i32 0
  %24 = getelementptr inbounds %struct.archive, ptr %23, i32 0, i32 4
  store ptr @.str.1, ptr %24, align 8
  %25 = load i32, ptr %5, align 4
  store i32 %25, ptr %2, align 4
  br label %26

26:                                               ; preds = %15, %13
  %27 = load i32, ptr %2, align 4
  ret i32 %27
}