; Function Attrs: nounwind uwtable
define dso_local range(i32 -30, 1) i32 @archive_write_set_format_pax_restricted(ptr noundef %0) local_unnamed_addr #0 {
  %2 = tail call i32 @__archive_check_magic(ptr noundef %0, i32 noundef -1329217314, i32 noundef 1, ptr noundef nonnull @.str) #15
  %3 = icmp eq i32 %2, -30
  br i1 %3, label %27, label %4

4:                                                ; preds = %1
  %5 = tail call i32 @__archive_check_magic(ptr noundef %0, i32 noundef -1329217314, i32 noundef 1, ptr noundef nonnull @.str.2) #15
  %6 = icmp eq i32 %5, -30
  br i1 %6, label %archive_write_set_format_pax.exit, label %7

7:                                                ; preds = %4
  %8 = getelementptr inbounds nuw i8, ptr %0, i64 312
  %9 = load ptr, ptr %8, align 8
  %.not.i = icmp eq ptr %9, null
  br i1 %.not.i, label %12, label %10

10:                                               ; preds = %7
  %11 = tail call i32 %9(ptr noundef nonnull %0) #15
  br label %12

12:                                               ; preds = %10, %7
  %13 = tail call noalias dereferenceable_or_null(128) ptr @calloc(i64 noundef 1, i64 noundef 128) #16
  %14 = icmp eq ptr %13, null
  br i1 %14, label %15, label %16

15:                                               ; preds = %12
  tail call void (ptr, i32, ptr, ...) @archive_set_error(ptr noundef nonnull %0, i32 noundef 12, ptr noundef nonnull @.str.3) #15
  br label %archive_write_set_format_pax.exit

16:                                               ; preds = %12
  %17 = getelementptr inbounds nuw i8, ptr %13, i64 124
  store i32 3, ptr %17, align 4
  %18 = getelementptr inbounds nuw i8, ptr %0, i64 248
  store ptr %13, ptr %18, align 8
  %19 = getelementptr inbounds nuw i8, ptr %0, i64 256
  store ptr @.str.4, ptr %19, align 8
  %20 = getelementptr inbounds nuw i8, ptr %0, i64 272
  store ptr @archive_write_pax_options, ptr %20, align 8
  %21 = getelementptr inbounds nuw i8, ptr %0, i64 288
  store ptr @archive_write_pax_header, ptr %21, align 8
  %22 = getelementptr inbounds nuw i8, ptr %0, i64 296
  store ptr @archive_write_pax_data, ptr %22, align 8
  %23 = getelementptr inbounds nuw i8, ptr %0, i64 304
  store ptr @archive_write_pax_close, ptr %23, align 8
  store ptr @archive_write_pax_free, ptr %8, align 8
  %24 = getelementptr inbounds nuw i8, ptr %0, i64 280
  store ptr @archive_write_pax_finish_entry, ptr %24, align 8
  br label %archive_write_set_format_pax.exit

archive_write_set_format_pax.exit:                ; preds = %4, %15, %16
  %.0.i = phi i32 [ -30, %15 ], [ 0, %16 ], [ -30, %4 ]
  %25 = getelementptr inbounds nuw i8, ptr %0, i64 16
  store i32 196611, ptr %25, align 8
  %26 = getelementptr inbounds nuw i8, ptr %0, i64 24
  store ptr @.str.1, ptr %26, align 8
  br label %27

27:                                               ; preds = %1, %archive_write_set_format_pax.exit
  %.0 = phi i32 [ %.0.i, %archive_write_set_format_pax.exit ], [ -30, %1 ]
  ret i32 %.0
}